(dp0
S'ah_1s_fitted_proportion_correct'
p1
(dp2
I0
cnumpy.core.multiarray
scalar
p3
(cnumpy
dtype
p4
(S'f8'
p5
I0
I1
tp6
Rp7
(I3
S'<'
p8
NNNI-1
I-1
I0
tp9
bS'\x00\x00\x00\x00\x00\x00\xf0?'
p10
tp11
Rp12
sI75
g3
(g7
S'i\xde=\xbd\xe3\xb6\xe1?'
p13
tp14
Rp15
sI45
g3
(g7
S'\x12\xbb\xd9\x0f\x8fu\xe9?'
p16
tp17
Rp18
sI15
g3
(g7
S'\xdcK\x89\x89\xeeV\xef?'
p19
tp20
Rp21
sI60
g3
(g7
S'\xe8\x9c\x1f\x87H\xeb\xe4?'
p22
tp23
Rp24
sI30
g3
(g7
S'\xf7\x9b\xaeB\xa1Q\xed?'
p25
tp26
Rp27
ssS'ah_djf_avg_1s_proportion_correct'
p28
(dp29
I0
I1
sI75
F0.6291451628
sI45
F0.8811540226
sI15
F0.989831619
sI60
F0.6985051217
sI30
F0.8880233141
ssS'ah_djf_avg_0_25s_proportion_correct'
p30
(dp31
I0
F0.9894674
sI75
F0.5253503438
sI45
F0.8152723878
sI15
F0.9629708212
sI60
F0.6293366665
sI30
F0.8199330822
ssS'djf_1s_fitted_proportion_correct'
p32
(dp33
I0
I1
sI75
g3
(g7
S'\xf1\x10\x0b\xdb$\xe5\xe5?'
p34
tp35
Rp36
sI45
g3
(g7
S'!\x17.I\xab\xc3\xec?'
p37
tp38
Rp39
sI15
g3
(g7
S'|\xc0WK\xb5\x93\xef?'
p40
tp41
Rp42
sI60
g3
(g7
S'<\xba\x1fe<Q\xe9?'
p43
tp44
Rp45
sI30
g3
(g7
S'_\x11XN\xbd\xac\xee?'
p46
tp47
Rp48
ssS'ah_djf_avg_1s_fitted_proportion_correct'
p49
(dp50
I0
g3
(g7
S'\x00\x00\x00\x00\x00\x00\xf0?'
p51
tp52
Rp53
sI75
g3
(g7
S'\xadw$L\x04\xce\xe3?'
p54
tp55
Rp56
sI45
g3
(g7
S'\x1a\xe9\x83,\x9d\x1c\xeb?'
p57
tp58
Rp59
sI15
g3
(g7
S',\x86p\xeaQu\xef?'
p60
tp61
Rp62
sI60
g3
(g7
S'\x92\xab\x1fvB\x1e\xe7?'
p63
tp64
Rp65
sI30
g3
(g7
S'\xabV\x83H/\xff\xed?'
p66
tp67
Rp68
ssS'ah_1s_proportion_correct'
p69
(dp70
I0
I1
sI75
F0.563966962961214
sI45
F0.857261183840339
sI15
F0.989299163056438
sI60
F0.608039301327227
sI30
F0.870801018340357
ssS'ah_0_25s_proportion_correct'
p71
(dp72
I0
F0.982794848488426
sI75
F0.500037381118207
sI45
F0.762799098131338
sI15
F0.948270434683382
sI60
F0.568913075128178
sI30
F0.792556435651356
ssS'djf_0_25s_proportion_correct'
p73
(dp74
I0
F0.996139951435046
sI75
F0.550663306418903
sI45
F0.867745677556826
sI15
F0.977671207688189
sI60
F0.689760257859356
sI30
F0.847309728674415
ssS'djf_1s_proportion_correct'
p75
(dp76
I0
I1
sI75
F0.694323362555231
sI45
F0.905046861395188
sI15
F0.990364074913335
sI60
F0.788970942149297
sI30
F0.905245609955275
ss.