(dp0
S'ah_alpha_30_proportion_correct'
p1
(dp2
I0
F0.54931065
sI60
F0.58014212
sI45
F0.45845519
sI30
F0.5692089
sI15
F0.5581387
ssS'djf_alpha_30_proportion_correct'
p3
(dp4
I0
F0.56957009
sI60
F0.63307453
sI45
F0.54801734
sI30
F0.61962273
sI15
F0.58434811
ssS'ah_alpha_15_proportion_correct'
p5
(dp6
I0
F0.82883059
sI60
F0.63469769
sI45
F0.59373325
sI30
F0.71868609
sI15
F0.77338585
ssS'ah_alpha_0_proportion_correct'
p7
(dp8
I0
I1
sI60
I1
sI45
I1
sI30
I1
sI15
I1
ssS'ah_djf_avg_alpha_30_proportion_correct'
p9
(dp10
I0
F0.55944037
sI60
F0.6066083250000001
sI45
F0.503236265
sI30
F0.5944158150000001
sI15
F0.5712434049999999
ssS'ah_djf_avg_alpha_15_proportion_correct'
p11
(dp12
I0
F0.87599407
sI60
F0.674516165
sI45
F0.6565272099999999
sI30
F0.75590442
sI15
F0.8179612
ssS'ah_djf_avg_alpha_0_proportion_correct'
p13
(dp14
I0
I1
sI60
I1
sI45
I1
sI30
I1
sI15
I1
ssS'djf_alpha_15_proportion_correct'
p15
(dp16
I0
F0.92315755
sI60
F0.71433464
sI45
F0.71932117
sI30
F0.79312275
sI15
F0.86253655
ssS'djf_alpha_0_proportion_correct'
p17
(dp18
I0
I1
sI60
I1
sI45
I1
sI30
I1
sI15
I1
ss.