(dp0
S'djf_0_25s_proportion_correct'
p1
(dp2
I0
F0.996139951435046
sI75
F0.550663306418903
sI45
F0.867745677556826
sI15
F0.977671207688189
sI60
F0.689760257859356
sI30
F0.847309728674415
ssS'ah_djf_avg_0_25s_proportion_correct'
p3
(dp4
I0
F0.9894674
sI75
F0.5253503438
sI45
F0.8152723878
sI15
F0.9629708212
sI60
F0.6293366665
sI30
F0.8199330822
ssS'ah_1s_proportion_correct'
p5
(dp6
I0
I1
sI75
F0.563966962961214
sI45
F0.857261183840339
sI15
F0.989299163056438
sI60
F0.608039301327227
sI30
F0.870801018340357
ssS'ah_0_25s_proportion_correct'
p7
(dp8
I0
F0.982794848488426
sI75
F0.500037381118207
sI45
F0.762799098131338
sI15
F0.948270434683382
sI60
F0.568913075128178
sI30
F0.792556435651356
ssS'ah_djf_avg_1s_proportion_correct'
p9
(dp10
I0
I1
sI75
F0.6291451628
sI45
F0.8811540226
sI15
F0.989831619
sI60
F0.6985051217
sI30
F0.8880233141
ssS'djf_1s_proportion_correct'
p11
(dp12
I0
I1
sI75
F0.694323362555231
sI45
F0.905046861395188
sI15
F0.990364074913335
sI60
F0.788970942149297
sI30
F0.905245609955275
ss.